EXPORTS
 cemuLog_log=?cemuLog_log@@YAXXZ
 PPCCore_executeCallback=?PPCCore_executeCallback@@YAXI@Z
 osLib_registerHLEFunction=?osLib_registerHLEFunction@@YAXPEBD0P6AXPEAUPPCInterpreter_t@@@Z@Z
 gameProfile_load=?gameProfile_load@@YAXXZ
 gameProfile_categoryBegin=?gameProfile_categoryBegin@@YAXPEAVIniParser@@@Z
 gameProfile_getCurrentCategoryName=?gameProfile_getCurrentCategoryName@@YAPEADPEAVIniParser@@@Z
 gameProfile_loadStringOption=?gameProfile_loadStringOption@@YAPEADPEAVIniParser@@PEAD@Z
 gameProfile_loadBooleanOption=?gameProfile_loadBooleanOption@@YA_NPEAVIniParser@@PEADPEAUgameProfileBooleanOption_t@@@Z
 gameProfile_loadIntegerNamedOption=?gameProfile_loadIntegerNamedOption@@YA_NPEAVIniParser@@PEADPEAUgameProfileIntegerOption_t@@HPEBUgpNamedOptionEntry_t@@H@Z
 gameProfile_loadIntegerOption=?gameProfile_loadIntegerOption@@YA_NPEAVIniParser@@PEBDPEAUgameProfileIntegerOption_t@@HHH@Z
 memory_init=?memory_init@@YAXXZ
 memory_getBase=?memory_getBase@@YAPEAXXZ
 wxMainWindowCreated=?wxMainWindowCreated@@YAPEAVwxTopLevelWindow@@PEAV1@IPEAVCemuApp@@@Z
 wxEvtHandler_Initialize=?wxEvtHandler_Initialize@@YAPEAVwxEvtHandler@@PEAE@Z
 wxEvtHandler_Connect=?wxEvtHandler_Connect@@YAXPEAVwxEvtHandler@@HHHP81@EAAXAEAVwxEvent@@@ZPEAVwxObject@@0@Z
 wxEvtHandler_Disconnect=?wxEvtHandler_Disconnect@@YAXPEAVwxEvtHandler@@HHHP81@EAAXAEAVwxEvent@@@ZPEAVwxObject@@0@Z
 wxGetEventByName=?wxGetEventByName@@YAHPEBD@Z
 gameMeta_loadForCurrent=?gameMeta_loadForCurrent@@YAXXZ
 gameMeta_getTitleId=?gameMeta_getTitleId@@YA_KXZ
 PPCRecompiler_init=?PPCRecompiler_init@@YAXXZ
 hasMOVBESupport=?hasMOVBESupport@@3_NA
 hasLZCNTSupport=?hasLZCNTSupport@@3_NA
 hasAVXSupport=?hasAVXSupport@@3_NA
 ppcRecompilerInstanceData=?ppcRecompilerInstanceData@@3PEAUPPCRecompilerInstanceData_t@@EA
 currentTLSModuleIndex=?_currentTLSModuleIndex@@3IA
 rplModuleCount=?rplModuleCount@@3HA
 rplModuleList=?rplModuleList@@3PAPEAURPLModule@@A
 rpl_loadFromMem=?rpl_loadFromMem@@YAPEAURPLModule@@PEAEHPEAD@Z
 loadSharedData=?loadSharedData@@YAIXZ
 graphicPack_loadGraphicPackShaders=?graphicPack_loadGraphicPackShaders@@YAXPEAUgraphicPack_t@@PEA_W@Z
 config_isGraphicPackEnabled=?config_isGraphicPackEnabled@@YA_N_K@Z
 alwaysDisplayDRC=?alwaysDisplayDRC@@3_NA
 ppcCyclesSince2000=?ppcCyclesSince2000@@3_KA
 ppcMainThreadCycleCounter=?ppcMainThreadCycleCounter@@3_KC
 GetTranslationWChar=?GetTranslationWChar@@YAPEB_WPEB_W@Z
 ActivateGraphicPack=?Activate@GraphicPack2@@AEAA_NXZ
 DeactivateGraphicPack=?Deactivate@GraphicPack2@@AEAA_NXZ
 coreinitAPI_OSYieldThread=?coreinitAPI_OSYieldThread@@YAXXZ
 GraphicPack2_GetFilename=?GraphicPack2_GetFilename@@YAPEB_WPEAVGraphicPack2@@@Z
 GraphicPack2_GetName=?GraphicPack2_GetName@@YAPEBDPEAVGraphicPack2@@@Z
 GraphicPack2_GetPath=?GraphicPack2_GetPath@@YAPEBDPEAVGraphicPack2@@@Z
 GraphicPack2_GetDescription=?GraphicPack2_GetDescription@@YAPEBDPEAVGraphicPack2@@@Z
 GraphicPack2_GetTitleIdCount=?GraphicPack2_GetTitleIdCount@@YA?BHPEAVGraphicPack2@@@Z
 GraphicPack2_GetTitleIdList=?GraphicPack2_GetTitleIdList@@YAPEB_KPEAVGraphicPack2@@@Z
 GraphicPack2_notifyActivate=?GraphicPack2_notifyActivate@@YAXPEAVGraphicPack2@@PEAVExpressionParser@@@Z
 GraphicPack2_notifyDeactivate=?GraphicPack2_notifyDeactivate@@YAXPEAVGraphicPack2@@@Z
 GraphicPack2_CreateExpressionParser=?GraphicPack2_CreateExpressionParser@@YAPEAVExpressionParser@@PEAVGraphicPack2@@@Z
 ExpressionParser_Create=?ExpressionParser_Create@@YAPEAVExpressionParser@@XZ
 ExpressionParser_CreateCopy=?ExpressionParser_CreateCopy@@YAPEAVExpressionParser@@PEAV1@@Z
 ExpressionParser_Delete=?ExpressionParser_Delete@@YAXPEAVExpressionParser@@@Z
 ExpressionParser_AddConstantDouble=?ExpressionParser_AddConstantDouble@@YAXPEAVExpressionParser@@PEBDN@Z
 ExpressionParser_AddConstantString=?ExpressionParser_AddConstantString@@YAXPEAVExpressionParser@@PEBD1@Z
 ExpressionParser_EvaluateToDouble=?ExpressionParser_EvaluateToDouble@@YA_NPEAVExpressionParser@@PEBDPEAN@Z
 PPCRecompiler_findFuncRanges=?PPCRecompiler_findFuncRanges@@YA_NIPEAUppcRecompilerFuncRange_t@@PEA_K@Z
 PPCRecompiler_getJumpTableBase=?PPCRecompiler_getJumpTableBase@@YAPEA_KXZ
 PPCRecompiler_invalidateRange=?PPCRecompiler_invalidateRange@@YAXII@Z